target datalayout = "e-m:e-p270:32:32-p271:32:32-p272:64:64-i64:64-i128:128-f80:128-n8:16:32:64-S128"
target triple = "x86_64-pc-linux-gnu"

%"struct.OpenImageIO::v3_1_0::TypeDesc" = type { i8, i8, i8, i8, i32 }
%"class.OpenImageIO::v3_1_0::HeifInput" = type { %"class.OpenImageIO::v3_1_0::ImageInput", %"class.std::__cxx11::basic_string", i32, i32, i32, i8, i8, i8, i8, %"class.std::unique_ptr.16", i32, %"class.std::vector.24", %"class.heif::ImageHandle", %"class.heif::Image" }
%"class.OpenImageIO::v3_1_0::ImageInput" = type { ptr, %"class.OpenImageIO::v3_1_0::ImageSpec", %"class.std::unique_ptr" }
%"class.OpenImageIO::v3_1_0::ImageSpec" = type { i32, i32, i32, i32, i32, i32, i32, i32, i32, i32, i32, i32, i32, i32, i32, i32, %"struct.OpenImageIO::v3_1_0::TypeDesc", %"class.std::vector", %"class.std::vector.0", i32, i32, i8, %"class.OpenImageIO::v3_1_0::ParamValueList" }
%"class.std::vector" = type { %"struct.std::_Vector_base" }
%"struct.std::_Vector_base" = type { %"struct.std::_Vector_base<OpenImageIO::v3_1_0::TypeDesc, std::allocator<OpenImageIO::v3_1_0::TypeDesc>>::_Vector_impl" }
%"struct.std::_Vector_base<OpenImageIO::v3_1_0::TypeDesc, std::allocator<OpenImageIO::v3_1_0::TypeDesc>>::_Vector_impl" = type { %"struct.std::_Vector_base<OpenImageIO::v3_1_0::TypeDesc, std::allocator<OpenImageIO::v3_1_0::TypeDesc>>::_Vector_impl_data" }
%"struct.std::_Vector_base<OpenImageIO::v3_1_0::TypeDesc, std::allocator<OpenImageIO::v3_1_0::TypeDesc>>::_Vector_impl_data" = type { ptr, ptr, ptr }
%"class.std::vector.0" = type { %"struct.std::_Vector_base.1" }
%"struct.std::_Vector_base.1" = type { %"struct.std::_Vector_base<std::__cxx11::basic_string<char>, std::allocator<std::__cxx11::basic_string<char>>>::_Vector_impl" }
%"struct.std::_Vector_base<std::__cxx11::basic_string<char>, std::allocator<std::__cxx11::basic_string<char>>>::_Vector_impl" = type { %"struct.std::_Vector_base<std::__cxx11::basic_string<char>, std::allocator<std::__cxx11::basic_string<char>>>::_Vector_impl_data" }
%"struct.std::_Vector_base<std::__cxx11::basic_string<char>, std::allocator<std::__cxx11::basic_string<char>>>::_Vector_impl_data" = type { ptr, ptr, ptr }
%"class.OpenImageIO::v3_1_0::ParamValueList" = type { %"class.std::vector.5" }
%"class.std::vector.5" = type { %"struct.std::_Vector_base.6" }
%"struct.std::_Vector_base.6" = type { %"struct.std::_Vector_base<OpenImageIO::v3_1_0::ParamValue, std::allocator<OpenImageIO::v3_1_0::ParamValue>>::_Vector_impl" }
%"struct.std::_Vector_base<OpenImageIO::v3_1_0::ParamValue, std::allocator<OpenImageIO::v3_1_0::ParamValue>>::_Vector_impl" = type { %"struct.std::_Vector_base<OpenImageIO::v3_1_0::ParamValue, std::allocator<OpenImageIO::v3_1_0::ParamValue>>::_Vector_impl_data" }
%"struct.std::_Vector_base<OpenImageIO::v3_1_0::ParamValue, std::allocator<OpenImageIO::v3_1_0::ParamValue>>::_Vector_impl_data" = type { ptr, ptr, ptr }
%"class.std::unique_ptr" = type { %"struct.std::__uniq_ptr_data" }
%"struct.std::__uniq_ptr_data" = type { %"class.std::__uniq_ptr_impl" }
%"class.std::__uniq_ptr_impl" = type { %"class.std::tuple" }
%"class.std::tuple" = type { %"struct.std::_Tuple_impl" }
%"struct.std::_Tuple_impl" = type { %"struct.std::_Tuple_impl.10", %"struct.std::_Head_base.11" }
%"struct.std::_Tuple_impl.10" = type { %"struct.std::_Head_base" }
%"struct.std::_Head_base" = type { ptr }
%"struct.std::_Head_base.11" = type { ptr }
%"class.std::__cxx11::basic_string" = type { %"struct.std::__cxx11::basic_string<char>::_Alloc_hider", i64, %union.anon.15 }
%"struct.std::__cxx11::basic_string<char>::_Alloc_hider" = type { ptr }
%union.anon.15 = type { i64, [8 x i8] }
%"class.std::unique_ptr.16" = type { %"struct.std::__uniq_ptr_data.17" }
%"struct.std::__uniq_ptr_data.17" = type { %"class.std::__uniq_ptr_impl.18" }
%"class.std::__uniq_ptr_impl.18" = type { %"class.std::tuple.19" }
%"class.std::tuple.19" = type { %"struct.std::_Tuple_impl.20" }
%"struct.std::_Tuple_impl.20" = type { %"struct.std::_Head_base.23" }
%"struct.std::_Head_base.23" = type { ptr }
%"class.std::vector.24" = type { %"struct.std::_Vector_base.25" }
%"struct.std::_Vector_base.25" = type { %"struct.std::_Vector_base<unsigned int, std::allocator<unsigned int>>::_Vector_impl" }
%"struct.std::_Vector_base<unsigned int, std::allocator<unsigned int>>::_Vector_impl" = type { %"struct.std::_Vector_base<unsigned int, std::allocator<unsigned int>>::_Vector_impl_data" }
%"struct.std::_Vector_base<unsigned int, std::allocator<unsigned int>>::_Vector_impl_data" = type { ptr, ptr, ptr }
%"class.heif::ImageHandle" = type { %"class.std::shared_ptr" }
%"class.std::shared_ptr" = type { %"class.std::__shared_ptr" }
%"class.std::__shared_ptr" = type { ptr, %"class.std::__shared_count" }
%"class.std::__shared_count" = type { ptr }
%"class.heif::Image" = type { %"class.std::shared_ptr.29" }
%"class.std::shared_ptr.29" = type { %"class.std::__shared_ptr.30" }
%"class.std::__shared_ptr.30" = type { ptr, %"class.std::__shared_count" }
%"class.std::lock_guard" = type { ptr }

@_ZN11OpenImageIO6v3_1_011TypeUnknownE = linkonce_odr hidden constant %"struct.OpenImageIO::v3_1_0::TypeDesc" { i8 0, i8 1, i8 0, i8 0, i32 0 }, comdat, align 4

; Function Attrs: mustprogress nounwind uwtable
define linkonce_odr void @_ZNSt10lock_guardIRKN11OpenImageIO6v3_1_010ImageInputEED2Ev(ptr noundef nonnull align 8 dereferenceable(8) %0) unnamed_addr #6 comdat align 2 personality ptr @__gxx_personality_v0 {
  %2 = alloca ptr, align 8
  store ptr %0, ptr %2, align 8, !tbaa !183
  %3 = load ptr, ptr %2, align 8
  %4 = getelementptr inbounds nuw %"class.std::lock_guard", ptr %3, i32 0, i32 0
  %5 = load ptr, ptr %4, align 8, !tbaa !185
  invoke void @_ZNK11OpenImageIO6v3_1_010ImageInput6unlockEv(ptr noundef nonnull align 8 dereferenceable(184) %5)
          to label %6 unwind label %7

6:                                                ; preds = %1
  ret void

7:                                                ; preds = %1
  %8 = landingpad { ptr, i32 }
          catch ptr null
  %9 = extractvalue { ptr, i32 } %8, 0
  call void @__clang_call_terminate(ptr %9) #27
  unreachable
}

; Function Attrs: mustprogress nounwind uwtable
define linkonce_odr noundef zeroext i1 @_ZNK11OpenImageIO6v3_1_08TypeDesceqERKS1_(ptr noundef nonnull align 4 dereferenceable(8) %0, ptr noundef nonnull align 4 dereferenceable(8) %1) #6 comdat align 2 {
  %3 = alloca ptr, align 8
  %4 = alloca ptr, align 8
  store ptr %0, ptr %3, align 8, !tbaa !86
  store ptr %1, ptr %4, align 8, !tbaa !86
  %5 = load ptr, ptr %3, align 8
  %6 = getelementptr inbounds nuw %"struct.OpenImageIO::v3_1_0::TypeDesc", ptr %5, i32 0, i32 0
  %7 = load i8, ptr %6, align 4, !tbaa !94
  %8 = zext i8 %7 to i32
  %9 = load ptr, ptr %4, align 8, !tbaa !86
  %10 = getelementptr inbounds nuw %"struct.OpenImageIO::v3_1_0::TypeDesc", ptr %9, i32 0, i32 0
  %11 = load i8, ptr %10, align 4, !tbaa !94
  %12 = zext i8 %11 to i32
  %13 = icmp eq i32 %8, %12
  br i1 %13, label %14, label %39

14:                                               ; preds = %2
  %15 = getelementptr inbounds nuw %"struct.OpenImageIO::v3_1_0::TypeDesc", ptr %5, i32 0, i32 1
  %16 = load i8, ptr %15, align 1, !tbaa !95
  %17 = zext i8 %16 to i32
  %18 = load ptr, ptr %4, align 8, !tbaa !86
  %19 = getelementptr inbounds nuw %"struct.OpenImageIO::v3_1_0::TypeDesc", ptr %18, i32 0, i32 1
  %20 = load i8, ptr %19, align 1, !tbaa !95
  %21 = zext i8 %20 to i32
  %22 = icmp eq i32 %17, %21
  br i1 %22, label %23, label %39

23:                                               ; preds = %14
  %24 = getelementptr inbounds nuw %"struct.OpenImageIO::v3_1_0::TypeDesc", ptr %5, i32 0, i32 2
  %25 = load i8, ptr %24, align 2, !tbaa !96
  %26 = zext i8 %25 to i32
  %27 = load ptr, ptr %4, align 8, !tbaa !86
  %28 = getelementptr inbounds nuw %"struct.OpenImageIO::v3_1_0::TypeDesc", ptr %27, i32 0, i32 2
  %29 = load i8, ptr %28, align 2, !tbaa !96
  %30 = zext i8 %29 to i32
  %31 = icmp eq i32 %26, %30
  br i1 %31, label %32, label %39

32:                                               ; preds = %23
  %33 = getelementptr inbounds nuw %"struct.OpenImageIO::v3_1_0::TypeDesc", ptr %5, i32 0, i32 4
  %34 = load i32, ptr %33, align 4, !tbaa !98
  %35 = load ptr, ptr %4, align 8, !tbaa !86
  %36 = getelementptr inbounds nuw %"struct.OpenImageIO::v3_1_0::TypeDesc", ptr %35, i32 0, i32 4
  %37 = load i32, ptr %36, align 4, !tbaa !98
  %38 = icmp eq i32 %34, %37
  br label %39

39:                                               ; preds = %32, %23, %14, %2
  %40 = phi i1 [ false, %23 ], [ false, %14 ], [ false, %2 ], [ %38, %32 ]
  ret i1 %40
}

; Function Attrs: mustprogress uwtable
define linkonce_odr void @_ZNSt10lock_guardIRKN11OpenImageIO6v3_1_010ImageInputEEC2ES4_(ptr noundef nonnull align 8 dereferenceable(8) %0, ptr noundef nonnull align 8 dereferenceable(184) %1) unnamed_addr #7 comdat align 2 {
  %3 = alloca ptr, align 8
  %4 = alloca ptr, align 8
  store ptr %0, ptr %3, align 8, !tbaa !183
  store ptr %1, ptr %4, align 8, !tbaa !137
  %5 = load ptr, ptr %3, align 8
  %6 = getelementptr inbounds nuw %"class.std::lock_guard", ptr %5, i32 0, i32 0
  %7 = load ptr, ptr %4, align 8, !tbaa !137
  store ptr %7, ptr %6, align 8, !tbaa !137
  %8 = getelementptr inbounds nuw %"class.std::lock_guard", ptr %5, i32 0, i32 0
  %9 = load ptr, ptr %8, align 8, !tbaa !185
  call void @_ZNK11OpenImageIO6v3_1_010ImageInput4lockEv(ptr noundef nonnull align 8 dereferenceable(184) %9)
  ret void
}

; Function Attrs: mustprogress uwtable
define hidden noundef zeroext i1 @_ZN11OpenImageIO6v3_1_09HeifInput13read_scanlineEiiNS0_8TypeDescEPvl(ptr noundef nonnull align 8 dereferenceable(304) %0, i32 noundef %1, i32 noundef %2, i64 %3, ptr noundef %4, i64 noundef %5) unnamed_addr #7 align 2 {
  %7 = alloca %"struct.OpenImageIO::v3_1_0::TypeDesc", align 4
  %8 = alloca ptr, align 8
  %9 = alloca i32, align 4
  %10 = alloca i32, align 4
  %11 = alloca ptr, align 8
  %12 = alloca i64, align 8
  %13 = alloca i8, align 1
  %14 = alloca %"struct.OpenImageIO::v3_1_0::TypeDesc", align 4
  %15 = alloca %"class.std::lock_guard", align 8
  %16 = alloca %"struct.OpenImageIO::v3_1_0::TypeDesc", align 4
  store i64 %3, ptr %7, align 4
  store ptr %0, ptr %8, align 8, !tbaa !8
  store i32 %1, ptr %9, align 4, !tbaa !93
  store i32 %2, ptr %10, align 4, !tbaa !93
  store ptr %4, ptr %11, align 8, !tbaa !144
  store i64 %5, ptr %12, align 8, !tbaa !100
  %17 = load ptr, ptr %8, align 8
  call void @llvm.lifetime.start.p0(i64 1, ptr %13) #3
  %18 = load i32, ptr %9, align 4, !tbaa !93
  %19 = load i32, ptr %10, align 4, !tbaa !93
  call void @llvm.memcpy.p0.p0.i64(ptr align 4 %14, ptr align 4 %7, i64 8, i1 false), !tbaa.struct !152
  %20 = load ptr, ptr %11, align 8, !tbaa !144
  %21 = load i64, ptr %12, align 8, !tbaa !100
  %22 = load i64, ptr %14, align 4
  %23 = call noundef zeroext i1 @_ZN11OpenImageIO6v3_1_010ImageInput13read_scanlineEiiNS0_8TypeDescEPvl(ptr noundef nonnull align 8 dereferenceable(184) %17, i32 noundef %18, i32 noundef %19, i64 %22, ptr noundef %20, i64 noundef %21)
  %24 = zext i1 %23 to i8
  store i8 %24, ptr %13, align 1, !tbaa !108
  %25 = load i8, ptr %13, align 1, !tbaa !108, !range !109, !noundef !110
  %26 = trunc i8 %25 to i1
  br i1 %26, label %27, label %52

27:                                               ; preds = %6
  %28 = getelementptr inbounds nuw %"class.OpenImageIO::v3_1_0::HeifInput", ptr %17, i32 0, i32 7
  %29 = load i8, ptr %28, align 2, !tbaa !74, !range !109, !noundef !110
  %30 = trunc i8 %29 to i1
  br i1 %30, label %31, label %52

31:                                               ; preds = %27
  call void @llvm.lifetime.start.p0(i64 8, ptr %15) #3
  call void @_ZNSt10lock_guardIRKN11OpenImageIO6v3_1_010ImageInputEEC2ES4_(ptr noundef nonnull align 8 dereferenceable(8) %15, ptr noundef nonnull align 8 dereferenceable(184) %17)
  %32 = call noundef zeroext i1 @_ZNK11OpenImageIO6v3_1_08TypeDesceqERKS1_(ptr noundef nonnull align 4 dereferenceable(8) %7, ptr noundef nonnull align 4 dereferenceable(8) @_ZN11OpenImageIO6v3_1_011TypeUnknownE) #3
  br i1 %32, label %33, label %36

33:                                               ; preds = %31
  %34 = getelementptr inbounds nuw %"class.OpenImageIO::v3_1_0::ImageInput", ptr %17, i32 0, i32 1
  %35 = getelementptr inbounds nuw %"class.OpenImageIO::v3_1_0::ImageSpec", ptr %34, i32 0, i32 16
  call void @llvm.memcpy.p0.p0.i64(ptr align 4 %7, ptr align 8 %35, i64 8, i1 false), !tbaa.struct !152
  br label %36

36:                                               ; preds = %33, %31
  call void @_ZNSt10lock_guardIRKN11OpenImageIO6v3_1_010ImageInputEED2Ev(ptr noundef nonnull align 8 dereferenceable(8) %15) #3
  call void @llvm.lifetime.end.p0(i64 8, ptr %15) #3
  %37 = getelementptr inbounds nuw %"class.OpenImageIO::v3_1_0::ImageInput", ptr %17, i32 0, i32 1
  %38 = getelementptr inbounds nuw %"class.OpenImageIO::v3_1_0::ImageSpec", ptr %37, i32 0, i32 15
  %39 = load i32, ptr %38, align 4, !tbaa !155
  %40 = getelementptr inbounds nuw %"class.OpenImageIO::v3_1_0::ImageInput", ptr %17, i32 0, i32 1
  %41 = getelementptr inbounds nuw %"class.OpenImageIO::v3_1_0::ImageSpec", ptr %40, i32 0, i32 3
  %42 = load i32, ptr %41, align 4, !tbaa !182
  %43 = getelementptr inbounds nuw %"class.OpenImageIO::v3_1_0::ImageInput", ptr %17, i32 0, i32 1
  %44 = getelementptr inbounds nuw %"class.OpenImageIO::v3_1_0::ImageSpec", ptr %43, i32 0, i32 15
  %45 = load i32, ptr %44, align 4, !tbaa !155
  call void @llvm.memcpy.p0.p0.i64(ptr align 4 %16, ptr align 4 %7, i64 8, i1 false), !tbaa.struct !152
  %46 = load ptr, ptr %11, align 8, !tbaa !144
  %47 = load i64, ptr %12, align 8, !tbaa !100
  %48 = getelementptr inbounds nuw %"class.OpenImageIO::v3_1_0::ImageInput", ptr %17, i32 0, i32 1
  %49 = getelementptr inbounds nuw %"class.OpenImageIO::v3_1_0::ImageSpec", ptr %48, i32 0, i32 19
  %50 = load i32, ptr %49, align 8, !tbaa !154
  %51 = load i64, ptr %16, align 4
  call void @_ZN11OpenImageIO6v3_1_07premultEiiiiiiNS0_8TypeDescEPvlllii(i32 noundef %39, i32 noundef %42, i32 noundef 1, i32 noundef 1, i32 noundef 0, i32 noundef %45, i64 %51, ptr noundef %46, i64 noundef %47, i64 noundef -9223372036854775808, i64 noundef -9223372036854775808, i32 noundef %50, i32 noundef -1)
  br label %52

52:                                               ; preds = %36, %27, %6
  %53 = load i8, ptr %13, align 1, !tbaa !108, !range !109, !noundef !110
  %54 = trunc i8 %53 to i1
  call void @llvm.lifetime.end.p0(i64 1, ptr %13) #3
  ret i1 %54
}