; Function Attrs: mustprogress uwtable
define hidden noundef zeroext i1 @_ZN11OpenImageIO6v3_1_09HeifInput13read_scanlineEiiNS0_8TypeDescEPvl(ptr noundef nonnull align 8 dereferenceable(304) %0, i32 noundef %1, i32 noundef %2, i64 %3, ptr noundef %4, i64 noundef %5) unnamed_addr #6 align 2 personality ptr @__gxx_personality_v0 {
  %.sroa.4.0.extract.shift = lshr i64 %3, 8
  %.sroa.5.0.extract.shift = lshr i64 %3, 16
  %7 = tail call noundef zeroext i1 @_ZN11OpenImageIO6v3_1_010ImageInput13read_scanlineEiiNS0_8TypeDescEPvl(ptr noundef nonnull align 8 dereferenceable(184) %0, i32 noundef %1, i32 noundef %2, i64 %3, ptr noundef %4, i64 noundef %5)
  br i1 %7, label %8, label %34

8:                                                ; preds = %6
  %9 = getelementptr inbounds nuw i8, ptr %0, i64 230
  %10 = load i8, ptr %9, align 2, !tbaa !73, !range !125, !noundef !126
  %11 = trunc nuw i8 %10 to i1
  br i1 %11, label %12, label %34

12:                                               ; preds = %8
  tail call void @_ZNK11OpenImageIO6v3_1_010ImageInput4lockEv(ptr noundef nonnull align 8 dereferenceable(184) %0)
  %13 = and i64 %3, 255
  %14 = icmp eq i64 %13, 0
  br i1 %14, label %15, label %_ZNK11OpenImageIO6v3_1_08TypeDesceqERKS1_.exit.thread

15:                                               ; preds = %12
  %16 = and i64 %3, 65280
  %17 = icmp eq i64 %16, 256
  br i1 %17, label %18, label %_ZNK11OpenImageIO6v3_1_08TypeDesceqERKS1_.exit.thread

18:                                               ; preds = %15
  %19 = and i64 %3, 16711680
  %20 = icmp eq i64 %19, 0
  br i1 %20, label %_ZNK11OpenImageIO6v3_1_08TypeDesceqERKS1_.exit, label %_ZNK11OpenImageIO6v3_1_08TypeDesceqERKS1_.exit.thread

_ZNK11OpenImageIO6v3_1_08TypeDesceqERKS1_.exit:   ; preds = %18
  %21 = icmp ult i64 %3, 4294967296
  br i1 %21, label %22, label %_ZNK11OpenImageIO6v3_1_08TypeDesceqERKS1_.exit.thread

22:                                               ; preds = %_ZNK11OpenImageIO6v3_1_08TypeDesceqERKS1_.exit
  %23 = getelementptr inbounds nuw i8, ptr %0, i64 72
  %24 = load i64, ptr %23, align 8
  %.sroa.4.0.extract.shift11 = lshr i64 %24, 8
  %.sroa.5.0.extract.shift13 = lshr i64 %24, 16
  br label %_ZNK11OpenImageIO6v3_1_08TypeDesceqERKS1_.exit.thread

_ZNK11OpenImageIO6v3_1_08TypeDesceqERKS1_.exit.thread: ; preds = %12, %15, %18, %22, %_ZNK11OpenImageIO6v3_1_08TypeDesceqERKS1_.exit
  %.sroa.6.0.in.in = phi i64 [ %24, %22 ], [ %3, %_ZNK11OpenImageIO6v3_1_08TypeDesceqERKS1_.exit ], [ %3, %18 ], [ %3, %15 ], [ %3, %12 ]
  %.sroa.5.0 = phi i64 [ %.sroa.5.0.extract.shift13, %22 ], [ 0, %_ZNK11OpenImageIO6v3_1_08TypeDesceqERKS1_.exit ], [ %.sroa.5.0.extract.shift, %18 ], [ %.sroa.5.0.extract.shift, %15 ], [ %.sroa.5.0.extract.shift, %12 ]
  %.sroa.4.0 = phi i64 [ %.sroa.4.0.extract.shift11, %22 ], [ 1, %_ZNK11OpenImageIO6v3_1_08TypeDesceqERKS1_.exit ], [ 1, %18 ], [ %.sroa.4.0.extract.shift, %15 ], [ %.sroa.4.0.extract.shift, %12 ]
  %.sroa.09.0 = phi i64 [ %24, %22 ], [ 0, %_ZNK11OpenImageIO6v3_1_08TypeDesceqERKS1_.exit ], [ 0, %18 ], [ 0, %15 ], [ %3, %12 ]
  invoke void @_ZNK11OpenImageIO6v3_1_010ImageInput6unlockEv(ptr noundef nonnull align 8 dereferenceable(184) %0)
          to label %_ZNSt10lock_guardIRKN11OpenImageIO6v3_1_010ImageInputEED2Ev.exit unwind label %25

25:                                               ; preds = %_ZNK11OpenImageIO6v3_1_08TypeDesceqERKS1_.exit.thread
  %26 = landingpad { ptr, i32 }
          catch ptr null
  %27 = extractvalue { ptr, i32 } %26, 0
  tail call void @__clang_call_terminate(ptr %27) #31
  unreachable

_ZNSt10lock_guardIRKN11OpenImageIO6v3_1_010ImageInputEED2Ev.exit: ; preds = %_ZNK11OpenImageIO6v3_1_08TypeDesceqERKS1_.exit.thread
  %28 = getelementptr inbounds nuw i8, ptr %0, i64 68
  %29 = load i32, ptr %28, align 4, !tbaa !134
  %30 = getelementptr inbounds nuw i8, ptr %0, i64 20
  %31 = load i32, ptr %30, align 4, !tbaa !150
  %.sroa.6.0.insert.insert = and i64 %.sroa.6.0.in.in, -16777216
  %.sroa.5.0.insert.ext = shl nuw i64 %.sroa.5.0, 16
  %.sroa.5.0.insert.shift = and i64 %.sroa.5.0.insert.ext, 16711680
  %.sroa.5.0.insert.insert = or disjoint i64 %.sroa.5.0.insert.shift, %.sroa.6.0.insert.insert
  %.sroa.4.0.insert.ext = shl nuw i64 %.sroa.4.0, 8
  %.sroa.4.0.insert.shift = and i64 %.sroa.4.0.insert.ext, 65280
  %.sroa.4.0.insert.insert = or disjoint i64 %.sroa.5.0.insert.insert, %.sroa.4.0.insert.shift
  %.sroa.09.0.insert.ext = and i64 %.sroa.09.0, 255
  %.sroa.09.0.insert.insert = or disjoint i64 %.sroa.4.0.insert.insert, %.sroa.09.0.insert.ext
  %32 = getelementptr inbounds nuw i8, ptr %0, i64 128
  %33 = load i32, ptr %32, align 8, !tbaa !154
  tail call void @_ZN11OpenImageIO6v3_1_07premultEiiiiiiNS0_8TypeDescEPvlllii(i32 noundef %29, i32 noundef %31, i32 noundef 1, i32 noundef 1, i32 noundef 0, i32 noundef %29, i64 %.sroa.09.0.insert.insert, ptr noundef %4, i64 noundef %5, i64 noundef -9223372036854775808, i64 noundef -9223372036854775808, i32 noundef %33, i32 noundef -1)
  br label %34

34:                                               ; preds = %_ZNSt10lock_guardIRKN11OpenImageIO6v3_1_010ImageInputEED2Ev.exit, %8, %6
  ret i1 %7
}